target datalayout = "e-m:e-p270:32:32-p271:32:32-p272:64:64-i64:64-i128:128-f80:128-n8:16:32:64-S128"
target triple = "x86_64-pc-linux-gnu"

%struct.jpeg_compress_struct = type { ptr, ptr, ptr, ptr, i32, i32, ptr, i32, i32, i32, i32, double, i32, i32, i32, ptr, [4 x ptr], [4 x ptr], [4 x ptr], [16 x i8], [16 x i8], [16 x i8], i32, ptr, i32, i32, i32, i32, i32, i32, i32, i32, i32, i8, i8, i8, i16, i16, i32, i32, i32, i32, i32, i32, i32, [4 x ptr], i32, i32, i32, [10 x i32], i32, i32, i32, i32, ptr, ptr, ptr, ptr, ptr, ptr, ptr, ptr, ptr, ptr, i32 }
%struct.jpeg_error_mgr = type { ptr, ptr, ptr, ptr, ptr, i32, %union.anon, i32, i64, ptr, i32, ptr, i32, i32 }
%union.anon = type { [8 x i32], [48 x i8] }
%struct.my_main_controller = type { %struct.jpeg_c_main_controller, i32, i32, i32, i32, [10 x ptr] }
%struct.jpeg_c_main_controller = type { ptr, ptr, ptr, ptr }

; Function Attrs: nounwind uwtable
define internal void @start_pass_main(ptr noundef %0, i32 noundef %1) #0 {
  %3 = alloca ptr, align 8
  %4 = alloca i32, align 4
  %5 = alloca ptr, align 8
  %6 = alloca i32, align 4
  store ptr %0, ptr %3, align 8, !tbaa !3
  store i32 %1, ptr %4, align 4, !tbaa !8
  call void @llvm.lifetime.start.p0(i64 8, ptr %5) #3
  %7 = load ptr, ptr %3, align 8, !tbaa !3
  %8 = getelementptr inbounds nuw %struct.jpeg_compress_struct, ptr %7, i32 0, i32 55
  %9 = load ptr, ptr %8, align 8, !tbaa !41
  store ptr %9, ptr %5, align 8, !tbaa !40
  %10 = load ptr, ptr %3, align 8, !tbaa !3
  %11 = getelementptr inbounds nuw %struct.jpeg_compress_struct, ptr %10, i32 0, i32 24
  %12 = load i32, ptr %11, align 8, !tbaa !45
  %13 = icmp ne i32 %12, 0
  br i1 %13, label %14, label %15

14:                                               ; preds = %2
  store i32 1, ptr %6, align 4
  br label %42

15:                                               ; preds = %2
  %16 = load i32, ptr %4, align 4, !tbaa !8
  %17 = icmp ne i32 %16, 0
  br i1 %17, label %18, label %29

18:                                               ; preds = %15
  %19 = load ptr, ptr %3, align 8, !tbaa !3
  %20 = getelementptr inbounds nuw %struct.jpeg_compress_struct, ptr %19, i32 0, i32 0
  %21 = load ptr, ptr %20, align 8, !tbaa !30
  %22 = getelementptr inbounds nuw %struct.jpeg_error_mgr, ptr %21, i32 0, i32 5
  store i32 4, ptr %22, align 8, !tbaa !31
  %23 = load ptr, ptr %3, align 8, !tbaa !3
  %24 = getelementptr inbounds nuw %struct.jpeg_compress_struct, ptr %23, i32 0, i32 0
  %25 = load ptr, ptr %24, align 8, !tbaa !30
  %26 = getelementptr inbounds nuw %struct.jpeg_error_mgr, ptr %25, i32 0, i32 0
  %27 = load ptr, ptr %26, align 8, !tbaa !36
  %28 = load ptr, ptr %3, align 8, !tbaa !3
  call void %27(ptr noundef %28)
  br label %29

29:                                               ; preds = %18, %15
  %30 = load ptr, ptr %5, align 8, !tbaa !40
  %31 = getelementptr inbounds nuw %struct.my_main_controller, ptr %30, i32 0, i32 1
  store i32 0, ptr %31, align 8, !tbaa !55
  %32 = load ptr, ptr %5, align 8, !tbaa !40
  %33 = getelementptr inbounds nuw %struct.my_main_controller, ptr %32, i32 0, i32 2
  store i32 0, ptr %33, align 4, !tbaa !56
  %34 = load ptr, ptr %5, align 8, !tbaa !40
  %35 = getelementptr inbounds nuw %struct.my_main_controller, ptr %34, i32 0, i32 3
  store i32 0, ptr %35, align 8, !tbaa !57
  %36 = load i32, ptr %4, align 4, !tbaa !8
  %37 = load ptr, ptr %5, align 8, !tbaa !40
  %38 = getelementptr inbounds nuw %struct.my_main_controller, ptr %37, i32 0, i32 4
  store i32 %36, ptr %38, align 4, !tbaa !58
  %39 = load ptr, ptr %5, align 8, !tbaa !40
  %40 = getelementptr inbounds nuw %struct.my_main_controller, ptr %39, i32 0, i32 0
  %41 = getelementptr inbounds nuw %struct.jpeg_c_main_controller, ptr %40, i32 0, i32 1
  store ptr @process_data_simple_main, ptr %41, align 8, !tbaa !59
  store i32 0, ptr %6, align 4
  br label %42

42:                                               ; preds = %29, %14
  call void @llvm.lifetime.end.p0(i64 8, ptr %5) #3
  %43 = load i32, ptr %6, align 4
  switch i32 %43, label %45 [
    i32 0, label %44
    i32 1, label %44
  ]

44:                                               ; preds = %42, %42
  ret void

45:                                               ; preds = %42
  unreachable
}