; Function Attrs: nounwind uwtable
define internal void @start_pass_main(ptr noundef %0, i32 noundef %1) #0 {
  %3 = getelementptr inbounds nuw i8, ptr %0, i64 440
  %4 = load ptr, ptr %3, align 8, !tbaa !37
  %5 = getelementptr inbounds nuw i8, ptr %0, i64 256
  %6 = load i32, ptr %5, align 8, !tbaa !41
  %.not = icmp eq i32 %6, 0
  br i1 %.not, label %7, label %18

7:                                                ; preds = %2
  %.not11 = icmp eq i32 %1, 0
  br i1 %.not11, label %12, label %8

8:                                                ; preds = %7
  %9 = load ptr, ptr %0, align 8, !tbaa !27
  %10 = getelementptr inbounds nuw i8, ptr %9, i64 40
  store i32 4, ptr %10, align 8, !tbaa !28
  %11 = load ptr, ptr %9, align 8, !tbaa !33
  tail call void %11(ptr noundef nonnull %0) #2
  br label %12

12:                                               ; preds = %8, %7
  %13 = getelementptr inbounds nuw i8, ptr %4, i64 32
  store i32 0, ptr %13, align 8, !tbaa !51
  %14 = getelementptr inbounds nuw i8, ptr %4, i64 36
  store i32 0, ptr %14, align 4, !tbaa !52
  %15 = getelementptr inbounds nuw i8, ptr %4, i64 40
  store i32 0, ptr %15, align 8, !tbaa !53
  %16 = getelementptr inbounds nuw i8, ptr %4, i64 44
  store i32 %1, ptr %16, align 4, !tbaa !54
  %17 = getelementptr inbounds nuw i8, ptr %4, i64 8
  store ptr @process_data_simple_main, ptr %17, align 8, !tbaa !55
  br label %18

18:                                               ; preds = %2, %12
  ret void
}